; Function Attrs: mustprogress uwtable
define hidden noundef zeroext i1 @_ZN6solver10is_literalER11ast_managerP4expr(ptr nonnull readnone align 8 captures(none) %0, ptr noundef nonnull align 8 dereferenceable(976) %1, ptr noundef readonly captures(none) %2) local_unnamed_addr #3 align 2 {
  %4 = getelementptr inbounds nuw i8, ptr %2, i64 4
  %5 = load i32, ptr %4, align 4
  %6 = and i32 %5, 65535
  %7 = icmp eq i32 %6, 0
  br i1 %7, label %8, label %_ZL9is_m_atomR11ast_managerP4expr.exit14

8:                                                ; preds = %3
  %9 = getelementptr inbounds nuw i8, ptr %2, i64 16
  %10 = load ptr, ptr %9, align 8, !tbaa !88
  %11 = getelementptr inbounds nuw i8, ptr %10, i64 24
  %12 = load ptr, ptr %11, align 8, !tbaa !89
  %13 = icmp eq ptr %12, null
  br i1 %13, label %_ZL9is_m_atomR11ast_managerP4expr.exit14, label %_ZNK3app13get_family_idEv.exit.i

_ZNK3app13get_family_idEv.exit.i:                 ; preds = %8
  %14 = load i32, ptr %12, align 8, !tbaa !93
  %.not.i = icmp eq i32 %14, 0
  br i1 %.not.i, label %15, label %_ZL9is_m_atomR11ast_managerP4expr.exit14

15:                                               ; preds = %_ZNK3app13get_family_idEv.exit.i
  %16 = getelementptr inbounds nuw i8, ptr %2, i64 24
  %17 = load i32, ptr %16, align 8, !tbaa !84
  %.not12.i = icmp eq i32 %17, 0
  br i1 %.not12.i, label %._crit_edge.i, label %18

18:                                               ; preds = %15
  %19 = getelementptr inbounds nuw i8, ptr %2, i64 32
  %20 = load ptr, ptr %19, align 8, !tbaa !18
  %21 = tail call noundef zeroext i1 @_ZNK11ast_manager7is_boolEPK4expr(ptr noundef nonnull align 8 dereferenceable(976) %1, ptr noundef %20)
  %.pre = load i32, ptr %4, align 4
  br i1 %21, label %_ZL9is_m_atomR11ast_managerP4expr.exit.thread18, label %._crit_edge.i

._crit_edge.i:                                    ; preds = %18, %15
  %22 = phi i32 [ %5, %15 ], [ %.pre, %18 ]
  %23 = and i32 %22, 65535
  %24 = icmp eq i32 %23, 0
  br i1 %24, label %25, label %_ZL9is_m_atomR11ast_managerP4expr.exit.thread18

25:                                               ; preds = %._crit_edge.i
  %26 = load ptr, ptr %9, align 8, !tbaa !88
  %27 = getelementptr inbounds nuw i8, ptr %26, i64 24
  %28 = load ptr, ptr %27, align 8, !tbaa !89
  %.not.i.i.i.i.i = icmp eq ptr %28, null
  br i1 %.not.i.i.i.i.i, label %_ZL9is_m_atomR11ast_managerP4expr.exit.thread18, label %_ZNK11ast_manager5is_eqEPK4expr.exit.i

_ZNK11ast_manager5is_eqEPK4expr.exit.i:           ; preds = %25
  %29 = load i32, ptr %28, align 8, !tbaa !93
  %30 = icmp eq i32 %29, 0
  %31 = getelementptr inbounds nuw i8, ptr %28, i64 4
  %32 = load i32, ptr %31, align 4
  %33 = and i32 %32, -2
  %34 = icmp eq i32 %33, 2
  %or.cond = select i1 %30, i1 %34, i1 false
  br i1 %or.cond, label %_ZL9is_m_atomR11ast_managerP4expr.exit14, label %_ZL9is_m_atomR11ast_managerP4expr.exit.thread18

_ZL9is_m_atomR11ast_managerP4expr.exit.thread18:  ; preds = %_ZNK11ast_manager5is_eqEPK4expr.exit.i, %25, %._crit_edge.i, %18
  %35 = phi i32 [ %22, %_ZNK11ast_manager5is_eqEPK4expr.exit.i ], [ %22, %25 ], [ %22, %._crit_edge.i ], [ %.pre, %18 ]
  %36 = and i32 %35, 65535
  %37 = icmp eq i32 %36, 0
  br i1 %37, label %38, label %_ZL9is_m_atomR11ast_managerP4expr.exit14

38:                                               ; preds = %_ZL9is_m_atomR11ast_managerP4expr.exit.thread18
  %39 = load ptr, ptr %9, align 8, !tbaa !88
  %40 = getelementptr inbounds nuw i8, ptr %39, i64 24
  %41 = load ptr, ptr %40, align 8, !tbaa !89
  %.not.i.i.i.i.i4 = icmp eq ptr %41, null
  br i1 %.not.i.i.i.i.i4, label %_ZL9is_m_atomR11ast_managerP4expr.exit14, label %_ZNK11ast_manager6is_notEPK4expr.exit.i

_ZNK11ast_manager6is_notEPK4expr.exit.i:          ; preds = %38
  %42 = load i32, ptr %41, align 8, !tbaa !93
  %43 = icmp eq i32 %42, 0
  %44 = getelementptr inbounds nuw i8, ptr %41, i64 4
  %45 = load i32, ptr %44, align 4
  %46 = icmp eq i32 %45, 8
  %47 = select i1 %43, i1 %46, i1 false
  br i1 %47, label %48, label %_ZL9is_m_atomR11ast_managerP4expr.exit14

48:                                               ; preds = %_ZNK11ast_manager6is_notEPK4expr.exit.i
  %49 = load i32, ptr %16, align 8, !tbaa !84
  %50 = icmp eq i32 %49, 1
  br i1 %50, label %51, label %_ZL9is_m_atomR11ast_managerP4expr.exit14

51:                                               ; preds = %48
  %52 = getelementptr inbounds nuw i8, ptr %2, i64 32
  %53 = load ptr, ptr %52, align 8, !tbaa !18
  %54 = getelementptr inbounds nuw i8, ptr %53, i64 4
  %55 = load i32, ptr %54, align 4
  %56 = and i32 %55, 65535
  %57 = icmp eq i32 %56, 0
  br i1 %57, label %58, label %_ZL9is_m_atomR11ast_managerP4expr.exit14

58:                                               ; preds = %51
  %59 = getelementptr inbounds nuw i8, ptr %53, i64 16
  %60 = load ptr, ptr %59, align 8, !tbaa !88
  %61 = getelementptr inbounds nuw i8, ptr %60, i64 24
  %62 = load ptr, ptr %61, align 8, !tbaa !89
  %63 = icmp eq ptr %62, null
  br i1 %63, label %_ZL9is_m_atomR11ast_managerP4expr.exit14, label %_ZNK3app13get_family_idEv.exit.i6

_ZNK3app13get_family_idEv.exit.i6:                ; preds = %58
  %64 = load i32, ptr %62, align 8, !tbaa !93
  %.not.i7 = icmp eq i32 %64, 0
  br i1 %.not.i7, label %65, label %_ZL9is_m_atomR11ast_managerP4expr.exit14

65:                                               ; preds = %_ZNK3app13get_family_idEv.exit.i6
  %66 = getelementptr inbounds nuw i8, ptr %53, i64 24
  %67 = load i32, ptr %66, align 8, !tbaa !84
  %.not12.i8 = icmp eq i32 %67, 0
  br i1 %.not12.i8, label %72, label %68

68:                                               ; preds = %65
  %69 = getelementptr inbounds nuw i8, ptr %53, i64 32
  %70 = load ptr, ptr %69, align 8, !tbaa !18
  %71 = tail call noundef zeroext i1 @_ZNK11ast_manager7is_boolEPK4expr(ptr noundef nonnull align 8 dereferenceable(976) %1, ptr noundef %70)
  br i1 %71, label %_ZL9is_m_atomR11ast_managerP4expr.exit14, label %._crit_edge.i9

._crit_edge.i9:                                   ; preds = %68
  %.pre.i10 = load i32, ptr %54, align 4
  br label %72

72:                                               ; preds = %._crit_edge.i9, %65
  %73 = phi i32 [ %.pre.i10, %._crit_edge.i9 ], [ %55, %65 ]
  %74 = and i32 %73, 65535
  %75 = icmp eq i32 %74, 0
  br i1 %75, label %76, label %_ZL9is_m_atomR11ast_managerP4expr.exit14

76:                                               ; preds = %72
  %77 = load ptr, ptr %59, align 8, !tbaa !88
  %78 = getelementptr inbounds nuw i8, ptr %77, i64 24
  %79 = load ptr, ptr %78, align 8, !tbaa !89
  %.not.i.i.i.i.i11 = icmp eq ptr %79, null
  br i1 %.not.i.i.i.i.i11, label %_ZL9is_m_atomR11ast_managerP4expr.exit14, label %_ZNK11ast_manager5is_eqEPK4expr.exit.i12

_ZNK11ast_manager5is_eqEPK4expr.exit.i12:         ; preds = %76
  %80 = load i32, ptr %79, align 8, !tbaa !93
  %81 = icmp eq i32 %80, 0
  %82 = getelementptr inbounds nuw i8, ptr %79, i64 4
  %83 = load i32, ptr %82, align 4
  %84 = icmp eq i32 %83, 2
  %85 = select i1 %81, i1 %84, i1 false
  br i1 %85, label %_ZL9is_m_atomR11ast_managerP4expr.exit14, label %.thread15.i13

.thread15.i13:                                    ; preds = %_ZNK11ast_manager5is_eqEPK4expr.exit.i12
  %86 = icmp eq i32 %83, 3
  %87 = select i1 %81, i1 %86, i1 false
  br label %_ZL9is_m_atomR11ast_managerP4expr.exit14

_ZL9is_m_atomR11ast_managerP4expr.exit14:         ; preds = %38, %_ZL9is_m_atomR11ast_managerP4expr.exit.thread18, %_ZNK11ast_manager6is_notEPK4expr.exit.i, %48, %8, %_ZNK11ast_manager5is_eqEPK4expr.exit.i, %_ZNK3app13get_family_idEv.exit.i, %3, %.thread15.i13, %_ZNK11ast_manager5is_eqEPK4expr.exit.i12, %76, %72, %68, %_ZNK3app13get_family_idEv.exit.i6, %58, %51
  %88 = phi i1 [ true, %51 ], [ true, %_ZNK3app13get_family_idEv.exit.i6 ], [ false, %68 ], [ true, %_ZNK11ast_manager5is_eqEPK4expr.exit.i12 ], [ %87, %.thread15.i13 ], [ false, %72 ], [ true, %58 ], [ false, %76 ], [ true, %3 ], [ true, %_ZNK3app13get_family_idEv.exit.i ], [ true, %_ZNK11ast_manager5is_eqEPK4expr.exit.i ], [ true, %8 ], [ false, %48 ], [ false, %_ZNK11ast_manager6is_notEPK4expr.exit.i ], [ false, %_ZL9is_m_atomR11ast_managerP4expr.exit.thread18 ], [ false, %38 ]
  ret i1 %88
}